; Function Attrs: mustprogress uwtable
define void @_ZN3gmx19StatePropagatorData15resetVelocitiesEv(ptr noundef nonnull align 8 dereferenceable(632) %0) local_unnamed_addr #0 align 2 {
  %2 = getelementptr inbounds i8, ptr %0, i64 560
  %3 = getelementptr inbounds i8, ptr %0, i64 88
  %4 = tail call noundef nonnull align 8 dereferenceable(32) ptr @_ZNSt6vectorIN3gmx11BasicVectorIfEENS0_9AllocatorIS2_NS0_20HostAllocationPolicyEEEEaSERKS6_(ptr noundef nonnull align 8 dereferenceable(32) %3, ptr noundef nonnull align 8 dereferenceable(32) %2)
  %5 = getelementptr inbounds i8, ptr %0, i64 96
  %6 = load ptr, ptr %5, align 8
  %7 = getelementptr inbounds i8, ptr %0, i64 592
  %8 = load ptr, ptr %7, align 8
  %9 = getelementptr inbounds i8, ptr %0, i64 568
  %10 = load ptr, ptr %9, align 8
  %11 = ptrtoint ptr %8 to i64
  %12 = ptrtoint ptr %10 to i64
  %13 = sub i64 %11, %12
  %14 = getelementptr inbounds i8, ptr %6, i64 %13
  %15 = getelementptr inbounds i8, ptr %0, i64 120
  store ptr %14, ptr %15, align 8
  ret void
}